; Function Attrs: mustprogress uwtable
define dso_local noundef zeroext i1 @_ZNK3net21QuicSentPacketManager11InSlowStartEv(ptr nocapture noundef nonnull readonly align 8 dereferenceable(776) %this) unnamed_addr #0 align 2 {
entry:
  %send_algorithm_ = getelementptr inbounds i8, ptr %this, i64 488
  %0 = load ptr, ptr %send_algorithm_, align 8
  %vtable = load ptr, ptr %0, align 8
  %vfn = getelementptr inbounds i8, ptr %vtable, i64 104
  %1 = load ptr, ptr %vfn, align 8
  %call2 = tail call noundef zeroext i1 %1(ptr noundef nonnull align 8 dereferenceable(8) %0)
  ret i1 %call2
}